; Function Attrs: mustprogress uwtable
define void @_ZN8QuantLib30MultiplicativePriceSeasonalityC2ERKNS_4DateENS_9FrequencyERKSt6vectorIdSaIdEE(ptr noundef nonnull align 8 dereferenceable(48) %this, ptr nocapture noundef nonnull readonly align 8 dereferenceable(8) %seasonalityBaseDate, i32 noundef %frequency, ptr nocapture noundef nonnull readonly align 8 dereferenceable(24) %seasonalityFactors) unnamed_addr #6 align 2 personality ptr @__gxx_personality_v0 {
entry:
  store ptr getelementptr inbounds inrange(-16, 96) (i8, ptr @_ZTVN8QuantLib30MultiplicativePriceSeasonalityE, i64 16), ptr %this, align 8, !tbaa !3
  %seasonalityBaseDate_ = getelementptr inbounds nuw i8, ptr %this, i64 8
  tail call void @_ZN8QuantLib4DateC1Ev(ptr noundef nonnull align 8 dereferenceable(8) %seasonalityBaseDate_)
  %seasonalityFactors_ = getelementptr inbounds nuw i8, ptr %this, i64 24
  tail call void @llvm.memset.p0.i64(ptr noundef nonnull align 8 dereferenceable(24) %seasonalityFactors_, i8 0, i64 24, i1 false)
  invoke void @_ZN8QuantLib30MultiplicativePriceSeasonality3setERKNS_4DateENS_9FrequencyERKSt6vectorIdSaIdEE(ptr noundef nonnull align 8 dereferenceable(48) %this, ptr noundef nonnull align 8 dereferenceable(8) %seasonalityBaseDate, i32 noundef %frequency, ptr noundef nonnull align 8 dereferenceable(24) %seasonalityFactors)
          to label %invoke.cont3 unwind label %lpad2

invoke.cont3:                                     ; preds = %entry
  ret void

lpad2:                                            ; preds = %entry
  %0 = landingpad { ptr, i32 }
          cleanup
  %1 = load ptr, ptr %seasonalityFactors_, align 8, !tbaa !18
  %tobool.not.i.i.i = icmp eq ptr %1, null
  br i1 %tobool.not.i.i.i, label %ehcleanup, label %if.then.i.i.i

if.then.i.i.i:                                    ; preds = %lpad2
  %_M_end_of_storage.i.i = getelementptr inbounds nuw i8, ptr %this, i64 40
  %2 = load ptr, ptr %_M_end_of_storage.i.i, align 8, !tbaa !9
  %sub.ptr.lhs.cast.i.i = ptrtoint ptr %2 to i64
  %sub.ptr.rhs.cast.i.i = ptrtoint ptr %1 to i64
  %sub.ptr.sub.i.i = sub i64 %sub.ptr.lhs.cast.i.i, %sub.ptr.rhs.cast.i.i
  tail call void @_ZdlPvm(ptr noundef nonnull %1, i64 noundef %sub.ptr.sub.i.i) #25
  br label %ehcleanup

ehcleanup:                                        ; preds = %if.then.i.i.i, %lpad2
  resume { ptr, i32 } %0
}